(dp0
S'a'
p1
ccopy_reg
_reconstructor
p2
(cspreadsheet.sheet
Sheet
p3
c__builtin__
object
p4
Ntp5
Rp6
(dp7
S'table'
p8
cnumpy.core.multiarray
_reconstruct
p9
(cnumpy
ndarray
p10
(I0
tp11
S'b'
p12
tp13
Rp14
(I1
(I3
I2
tp15
cnumpy
dtype
p16
(S'O8'
p17
I0
I1
tp18
Rp19
(I3
S'|'
p20
NNNI-1
I-1
I63
tp21
bI00
(lp22
g2
(cspreadsheet.sheet
Cell
p23
g4
Ntp24
Rp25
(dp26
S'dtype'
p27
S'int'
p28
sS'v'
p29
I1
sbag2
(g23
g4
Ntp30
Rp31
(dp32
g27
S'none'
p33
sg29
Nsbag2
(g23
g4
Ntp34
Rp35
(dp36
g27
g28
sg29
I2
sbag2
(g23
g4
Ntp37
Rp38
(dp39
g27
g33
sg29
Nsbag2
(g23
g4
Ntp40
Rp41
(dp42
g27
g28
sg29
I3
sbag2
(g23
g4
Ntp43
Rp44
(dp45
g27
g33
sg29
Nsbatp46
bsbs.